target datalayout = "e-m:e-p270:32:32-p271:32:32-p272:64:64-i64:64-i128:128-f80:128-n8:16:32:64-S128"
target triple = "x86_64-pc-linux-gnu"

@hf_wai_ecdh = internal global i32 0, align 4
@hf_wai_ecdh_id = internal global i32 0, align 4
@hf_wai_ecdh_len = internal global i32 0, align 4
@hf_wai_ecdh_content = internal global i32 0, align 4
@ett_wai_ecdh_param = internal global i32 0, align 4
@.str.229 = private unnamed_addr constant [8 x i8] c"unknown\00", align 1
@.str.234 = private unnamed_addr constant [4 x i8] c"OID\00", align 1
@.str.235 = private unnamed_addr constant [19 x i8] c"Detailed parameter\00", align 1
@.str.236 = private unnamed_addr constant [13 x i8] c"ID: %s (%#x)\00", align 1

; Function Attrs: nounwind uwtable
define internal zeroext i16 @dissect_ecdh_parameter(ptr noundef %0, i32 noundef %1, ptr noundef %2) #0 {
  %4 = alloca ptr, align 8
  %5 = alloca i32, align 4
  %6 = alloca ptr, align 8
  %7 = alloca ptr, align 8
  %8 = alloca ptr, align 8
  %9 = alloca ptr, align 8
  %10 = alloca i8, align 1
  %11 = alloca i16, align 2
  %12 = alloca ptr, align 8
  store ptr %0, ptr %4, align 8
  store i32 %1, ptr %5, align 4
  store ptr %2, ptr %6, align 8
  store ptr @.str.229, ptr %12, align 8
  %13 = load ptr, ptr %4, align 8
  %14 = load i32, ptr %5, align 4
  %15 = call zeroext i8 @tvb_get_guint8(ptr noundef %13, i32 noundef %14)
  store i8 %15, ptr %10, align 1
  %16 = load i8, ptr %10, align 1
  %17 = zext i8 %16 to i32
  %18 = icmp eq i32 %17, 1
  br i1 %18, label %19, label %20

19:                                               ; preds = %3
  store ptr @.str.234, ptr %12, align 8
  br label %26

20:                                               ; preds = %3
  %21 = load i8, ptr %10, align 1
  %22 = zext i8 %21 to i32
  %23 = icmp eq i32 %22, 2
  br i1 %23, label %24, label %25

24:                                               ; preds = %20
  store ptr @.str.235, ptr %12, align 8
  br label %25

25:                                               ; preds = %24, %20
  br label %26

26:                                               ; preds = %25, %19
  %27 = load ptr, ptr %4, align 8
  %28 = load i32, ptr %5, align 4
  %29 = add i32 %28, 1
  %30 = call zeroext i16 @tvb_get_ntohs(ptr noundef %27, i32 noundef %29)
  store i16 %30, ptr %11, align 2
  %31 = load ptr, ptr %6, align 8
  %32 = load i32, ptr @hf_wai_ecdh, align 4
  %33 = load ptr, ptr %4, align 8
  %34 = load i32, ptr %5, align 4
  %35 = load i16, ptr %11, align 2
  %36 = zext i16 %35 to i32
  %37 = add i32 %36, 3
  %38 = call ptr @proto_tree_add_item(ptr noundef %31, i32 noundef %32, ptr noundef %33, i32 noundef %34, i32 noundef %37, i32 noundef 0)
  store ptr %38, ptr %7, align 8
  %39 = load ptr, ptr %7, align 8
  %40 = load i32, ptr @ett_wai_ecdh_param, align 4
  %41 = call ptr @proto_item_add_subtree(ptr noundef %39, i32 noundef %40)
  store ptr %41, ptr %8, align 8
  %42 = load ptr, ptr %8, align 8
  %43 = load i32, ptr @hf_wai_ecdh_id, align 4
  %44 = load ptr, ptr %4, align 8
  %45 = load i32, ptr %5, align 4
  %46 = call ptr @proto_tree_add_item(ptr noundef %42, i32 noundef %43, ptr noundef %44, i32 noundef %45, i32 noundef 1, i32 noundef 0)
  store ptr %46, ptr %9, align 8
  %47 = load ptr, ptr %9, align 8
  %48 = load ptr, ptr %12, align 8
  %49 = load i8, ptr %10, align 1
  %50 = zext i8 %49 to i32
  call void (ptr, ptr, ...) @proto_item_set_text(ptr noundef %47, ptr noundef @.str.236, ptr noundef %48, i32 noundef %50)
  %51 = load ptr, ptr %8, align 8
  %52 = load i32, ptr @hf_wai_ecdh_len, align 4
  %53 = load ptr, ptr %4, align 8
  %54 = load i32, ptr %5, align 4
  %55 = add i32 %54, 1
  %56 = call ptr @proto_tree_add_item(ptr noundef %51, i32 noundef %52, ptr noundef %53, i32 noundef %55, i32 noundef 2, i32 noundef 0)
  %57 = load ptr, ptr %8, align 8
  %58 = load i32, ptr @hf_wai_ecdh_content, align 4
  %59 = load ptr, ptr %4, align 8
  %60 = load i32, ptr %5, align 4
  %61 = add i32 %60, 3
  %62 = load i16, ptr %11, align 2
  %63 = zext i16 %62 to i32
  %64 = call ptr @proto_tree_add_item(ptr noundef %57, i32 noundef %58, ptr noundef %59, i32 noundef %61, i32 noundef %63, i32 noundef 0)
  %65 = load i16, ptr %11, align 2
  %66 = zext i16 %65 to i32
  %67 = add i32 %66, 3
  %68 = trunc i32 %67 to i16
  ret i16 %68
}