; Function Attrs: nounwind uwtable
define internal fastcc noundef zeroext i16 @dissect_ecdh_parameter(ptr noundef %0, i32 noundef range(i32 0, 65536) %1, ptr noundef %2) unnamed_addr #0 {
  %4 = tail call zeroext i8 @tvb_get_guint8(ptr noundef %0, i32 noundef %1) #3
  %switch.selectcmp = icmp eq i8 %4, 2
  %switch.select = select i1 %switch.selectcmp, ptr @.str.235, ptr @.str.229
  %switch.selectcmp25 = icmp eq i8 %4, 1
  %switch.select26 = select i1 %switch.selectcmp25, ptr @.str.234, ptr %switch.select
  %5 = zext i8 %4 to i32
  %6 = add nuw nsw i32 %1, 1
  %7 = tail call zeroext i16 @tvb_get_ntohs(ptr noundef %0, i32 noundef %6) #3
  %8 = load i32, ptr @hf_wai_ecdh, align 4
  %9 = zext i16 %7 to i32
  %10 = add nuw nsw i32 %9, 3
  %11 = tail call ptr @proto_tree_add_item(ptr noundef %2, i32 noundef %8, ptr noundef %0, i32 noundef %1, i32 noundef %10, i32 noundef 0) #3
  %12 = load i32, ptr @ett_wai_ecdh_param, align 4
  %13 = tail call ptr @proto_item_add_subtree(ptr noundef %11, i32 noundef %12) #3
  %14 = load i32, ptr @hf_wai_ecdh_id, align 4
  %15 = tail call ptr @proto_tree_add_item(ptr noundef %13, i32 noundef %14, ptr noundef %0, i32 noundef %1, i32 noundef 1, i32 noundef 0) #3
  tail call void (ptr, ptr, ...) @proto_item_set_text(ptr noundef %15, ptr noundef nonnull @.str.236, ptr noundef nonnull %switch.select26, i32 noundef %5) #3
  %16 = load i32, ptr @hf_wai_ecdh_len, align 4
  %17 = tail call ptr @proto_tree_add_item(ptr noundef %13, i32 noundef %16, ptr noundef %0, i32 noundef %6, i32 noundef 2, i32 noundef 0) #3
  %18 = load i32, ptr @hf_wai_ecdh_content, align 4
  %19 = add nuw nsw i32 %1, 3
  %20 = tail call ptr @proto_tree_add_item(ptr noundef %13, i32 noundef %18, ptr noundef %0, i32 noundef %19, i32 noundef %9, i32 noundef 0) #3
  %21 = trunc i32 %10 to i16
  ret i16 %21
}